; Function Attrs: nounwind uwtable
define internal noundef ptr @pysqlite_enable_callback_trace(ptr noundef %0, ptr noundef %1) #2 {
  %3 = tail call i32 @PyLong_AsInt(ptr noundef %1) #5
  %4 = icmp eq i32 %3, -1
  br i1 %4, label %5, label %.sink.split

5:                                                ; preds = %2
  %6 = tail call ptr @PyErr_Occurred() #5
  %.not = icmp eq ptr %6, null
  br i1 %.not, label %.sink.split, label %9

.sink.split:                                      ; preds = %5, %2
  %.sink = phi i32 [ %3, %2 ], [ -1, %5 ]
  %7 = tail call ptr @PyModule_GetState(ptr noundef %0) #5
  %8 = getelementptr inbounds nuw i8, ptr %7, i64 108
  store i32 %.sink, ptr %8, align 4, !tbaa !51
  br label %9

9:                                                ; preds = %.sink.split, %5
  %.0 = phi ptr [ null, %5 ], [ @_Py_NoneStruct, %.sink.split ]
  ret ptr %.0
}